target datalayout = "e-m:e-p270:32:32-p271:32:32-p272:64:64-i64:64-i128:128-f80:128-n8:16:32:64-S128"
target triple = "x86_64-pc-linux-gnu"

@carp_type_vals = internal constant [2 x { i32, [4 x i8], ptr }] [{ i32, [4 x i8], ptr } { i32 1, [4 x i8] zeroinitializer, ptr @.str.36 }, { i32, [4 x i8], ptr } zeroinitializer], align 16

; Function Attrs: null_pointer_is_valid sspstrong uwtable
define internal zeroext i1 @test_carp_packet(ptr noundef %0, ptr noundef %1, ptr noundef %2, ptr noundef %3) #0 {
  %5 = alloca i1, align 1
  %6 = alloca ptr, align 8
  %7 = alloca ptr, align 8
  %8 = alloca ptr, align 8
  %9 = alloca ptr, align 8
  %10 = alloca i8, align 1
  %11 = alloca i8, align 1
  %12 = alloca i8, align 1
  %13 = alloca i32, align 4
  store ptr %0, ptr %6, align 8
  store ptr %1, ptr %7, align 8
  store ptr %2, ptr %8, align 8
  store ptr %3, ptr %9, align 8
  call void @llvm.lifetime.start.p0(i64 1, ptr %10) #3
  call void @llvm.lifetime.start.p0(i64 1, ptr %11) #3
  call void @llvm.lifetime.start.p0(i64 1, ptr %12) #3
  %14 = load ptr, ptr %6, align 8
  %15 = call i32 @tvb_captured_length(ptr noundef %14)
  %16 = icmp ult i32 %15, 36
  br i1 %16, label %17, label %18

17:                                               ; preds = %4
  store i1 false, ptr %5, align 1
  store i32 1, ptr %13, align 4
  br label %48

18:                                               ; preds = %4
  %19 = load ptr, ptr %6, align 8
  %20 = call zeroext i8 @tvb_get_uint8(ptr noundef %19, i32 noundef 0)
  store i8 %20, ptr %10, align 1
  %21 = load i8, ptr %10, align 1
  %22 = zext i8 %21 to i32
  %23 = and i32 %22, 240
  %24 = ashr i32 %23, 4
  %25 = trunc i32 %24 to i8
  store i8 %25, ptr %11, align 1
  %26 = load i8, ptr %11, align 1
  %27 = zext i8 %26 to i32
  %28 = icmp eq i32 %27, 0
  br i1 %28, label %39, label %29

29:                                               ; preds = %18
  %30 = load i8, ptr %11, align 1
  %31 = zext i8 %30 to i32
  %32 = icmp sgt i32 %31, 2
  br i1 %32, label %39, label %33

33:                                               ; preds = %29
  %34 = load i8, ptr %10, align 1
  %35 = zext i8 %34 to i32
  %36 = and i32 %35, 15
  %37 = call ptr @try_val_to_str(i32 noundef %36, ptr noundef @carp_type_vals)
  %38 = icmp eq ptr %37, null
  br i1 %38, label %39, label %40

39:                                               ; preds = %33, %29, %18
  store i1 false, ptr %5, align 1
  store i32 1, ptr %13, align 4
  br label %48

40:                                               ; preds = %33
  %41 = load ptr, ptr %6, align 8
  %42 = call zeroext i8 @tvb_get_uint8(ptr noundef %41, i32 noundef 3)
  store i8 %42, ptr %12, align 1
  %43 = load i8, ptr %12, align 1
  %44 = zext i8 %43 to i32
  %45 = icmp ne i32 %44, 7
  br i1 %45, label %46, label %47

46:                                               ; preds = %40
  store i1 false, ptr %5, align 1
  store i32 1, ptr %13, align 4
  br label %48

47:                                               ; preds = %40
  store i1 true, ptr %5, align 1
  store i32 1, ptr %13, align 4
  br label %48

48:                                               ; preds = %47, %46, %39, %17
  call void @llvm.lifetime.end.p0(i64 1, ptr %12) #3
  call void @llvm.lifetime.end.p0(i64 1, ptr %11) #3
  call void @llvm.lifetime.end.p0(i64 1, ptr %10) #3
  %49 = load i1, ptr %5, align 1
  ret i1 %49
}

; Function Attrs: null_pointer_is_valid sspstrong uwtable
define internal zeroext i1 @dissect_carp_heur(ptr noundef %0, ptr noundef %1, ptr noundef %2, ptr noundef %3) #0 {
  %5 = alloca i1, align 1
  %6 = alloca ptr, align 8
  %7 = alloca ptr, align 8
  %8 = alloca ptr, align 8
  %9 = alloca ptr, align 8
  store ptr %0, ptr %6, align 8
  store ptr %1, ptr %7, align 8
  store ptr %2, ptr %8, align 8
  store ptr %3, ptr %9, align 8
  %10 = load ptr, ptr %6, align 8
  %11 = load ptr, ptr %7, align 8
  %12 = load ptr, ptr %8, align 8
  %13 = load ptr, ptr %9, align 8
  %14 = call zeroext i1 @test_carp_packet(ptr noundef %10, ptr noundef %11, ptr noundef %12, ptr noundef %13)
  br i1 %14, label %16, label %15

15:                                               ; preds = %4
  store i1 false, ptr %5, align 1
  br label %22

16:                                               ; preds = %4
  %17 = load ptr, ptr %6, align 8
  %18 = load ptr, ptr %7, align 8
  %19 = load ptr, ptr %8, align 8
  %20 = load ptr, ptr %9, align 8
  %21 = call i32 @dissect_carp(ptr noundef %17, ptr noundef %18, ptr noundef %19, ptr noundef %20)
  store i1 true, ptr %5, align 1
  br label %22

22:                                               ; preds = %16, %15
  %23 = load i1, ptr %5, align 1
  ret i1 %23
}