; Function Attrs: null_pointer_is_valid sspstrong uwtable
define internal noundef zeroext i1 @dissect_carp_heur(ptr noundef %0, ptr noundef %1, ptr noundef %2, ptr readnone captures(none) %3) #0 {
  %5 = tail call i32 @tvb_captured_length(ptr noundef %0)
  %6 = icmp ult i32 %5, 36
  br i1 %6, label %test_carp_packet.exit.thread, label %7

7:                                                ; preds = %4
  %8 = tail call zeroext i8 @tvb_get_uint8(ptr noundef %0, i32 noundef 0)
  %9 = add i8 %8, -48
  %or.cond.i = icmp ult i8 %9, -32
  br i1 %or.cond.i, label %test_carp_packet.exit.thread, label %10

10:                                               ; preds = %7
  %11 = and i8 %8, 15
  %12 = zext nneg i8 %11 to i32
  %13 = tail call ptr @try_val_to_str(i32 noundef %12, ptr noundef nonnull @carp_type_vals)
  %14 = icmp eq ptr %13, null
  br i1 %14, label %test_carp_packet.exit.thread, label %test_carp_packet.exit

test_carp_packet.exit:                            ; preds = %10
  %15 = tail call zeroext i8 @tvb_get_uint8(ptr noundef %0, i32 noundef 3)
  %.not.i = icmp eq i8 %15, 7
  br i1 %.not.i, label %16, label %test_carp_packet.exit.thread

16:                                               ; preds = %test_carp_packet.exit
  %17 = tail call i32 @dissect_carp(ptr noundef %0, ptr noundef %1, ptr noundef %2, ptr poison)
  br label %test_carp_packet.exit.thread

test_carp_packet.exit.thread:                     ; preds = %7, %10, %4, %test_carp_packet.exit, %16
  %.0.i10 = phi i1 [ false, %test_carp_packet.exit ], [ true, %16 ], [ false, %4 ], [ false, %10 ], [ false, %7 ]
  ret i1 %.0.i10
}